target datalayout = "e-m:e-p270:32:32-p271:32:32-p272:64:64-i64:64-i128:128-f80:128-n8:16:32:64-S128"
target triple = "x86_64-pc-linux-gnu"

%struct.UBiDi = type { ptr, ptr, i32, i32, i32, i32, i32, i32, i32, i32, i32, ptr, ptr, ptr, ptr, ptr, ptr, i8, i8, ptr, ptr, i8, i32, i32, i8, i8, i8, ptr, i32, ptr, i32, ptr, i32, i32, i32, i32, i32, ptr, [10 x %struct.Para], i32, ptr, [1 x %struct.Run], i32, ptr, [5 x %struct.Isolate], %struct.InsertPoints, i32, ptr, ptr }
%struct.Para = type { i32, i32 }
%struct.Run = type { i32, i32, i32 }
%struct.Isolate = type { i32, i32, i32, i16 }
%struct.InsertPoints = type { i32, i32, i32, i32, ptr }
%struct.BracketData = type { ptr, [20 x %struct.Opening], ptr, i32, i32, [127 x %struct.IsoRun], i8 }
%struct.Opening = type { i32, i32, i32, i16, i32, i8 }
%struct.IsoRun = type { i32, i16, i16, i8, i8, i8, i32 }

; Function Attrs: mustprogress uwtable
define internal void @_ZL6fixN0cP11BracketDataiih(ptr noundef %0, i32 noundef %1, i32 noundef %2, i8 noundef zeroext %3) #0 {
  %5 = alloca ptr, align 8
  %6 = alloca i32, align 4
  %7 = alloca i32, align 4
  %8 = alloca i8, align 1
  %9 = alloca ptr, align 8
  %10 = alloca ptr, align 8
  %11 = alloca ptr, align 8
  %12 = alloca i32, align 4
  %13 = alloca i32, align 4
  %14 = alloca i32, align 4
  store ptr %0, ptr %5, align 8, !tbaa !152
  store i32 %1, ptr %6, align 4, !tbaa !7
  store i32 %2, ptr %7, align 4, !tbaa !7
  store i8 %3, ptr %8, align 1, !tbaa !30
  call void @llvm.lifetime.start.p0(i64 8, ptr %9) #10
  %15 = load ptr, ptr %5, align 8, !tbaa !152
  %16 = getelementptr inbounds nuw %struct.BracketData, ptr %15, i32 0, i32 5
  %17 = load ptr, ptr %5, align 8, !tbaa !152
  %18 = getelementptr inbounds nuw %struct.BracketData, ptr %17, i32 0, i32 4
  %19 = load i32, ptr %18, align 4, !tbaa !156
  %20 = sext i32 %19 to i64
  %21 = getelementptr inbounds [127 x %struct.IsoRun], ptr %16, i64 0, i64 %20
  store ptr %21, ptr %9, align 8, !tbaa !169
  call void @llvm.lifetime.start.p0(i64 8, ptr %10) #10
  call void @llvm.lifetime.start.p0(i64 8, ptr %11) #10
  %22 = load ptr, ptr %5, align 8, !tbaa !152
  %23 = getelementptr inbounds nuw %struct.BracketData, ptr %22, i32 0, i32 0
  %24 = load ptr, ptr %23, align 8, !tbaa !154
  %25 = getelementptr inbounds nuw %struct.UBiDi, ptr %24, i32 0, i32 19
  %26 = load ptr, ptr %25, align 8, !tbaa !71
  store ptr %26, ptr %11, align 8, !tbaa !64
  call void @llvm.lifetime.start.p0(i64 4, ptr %12) #10
  call void @llvm.lifetime.start.p0(i64 4, ptr %13) #10
  call void @llvm.lifetime.start.p0(i64 4, ptr %14) #10
  %27 = load i32, ptr %6, align 4, !tbaa !7
  %28 = add nsw i32 %27, 1
  store i32 %28, ptr %12, align 4, !tbaa !7
  %29 = load ptr, ptr %5, align 8, !tbaa !152
  %30 = getelementptr inbounds nuw %struct.BracketData, ptr %29, i32 0, i32 2
  %31 = load ptr, ptr %30, align 8, !tbaa !165
  %32 = load i32, ptr %12, align 4, !tbaa !7
  %33 = sext i32 %32 to i64
  %34 = getelementptr inbounds %struct.Opening, ptr %31, i64 %33
  store ptr %34, ptr %10, align 8, !tbaa !178
  br label %35

35:                                               ; preds = %98, %4
  %36 = load i32, ptr %12, align 4, !tbaa !7
  %37 = load ptr, ptr %9, align 8, !tbaa !169
  %38 = getelementptr inbounds nuw %struct.IsoRun, ptr %37, i32 0, i32 2
  %39 = load i16, ptr %38, align 2, !tbaa !159
  %40 = zext i16 %39 to i32
  %41 = icmp slt i32 %36, %40
  br i1 %41, label %42, label %103

42:                                               ; preds = %35
  %43 = load ptr, ptr %10, align 8, !tbaa !178
  %44 = getelementptr inbounds nuw %struct.Opening, ptr %43, i32 0, i32 1
  %45 = load i32, ptr %44, align 4, !tbaa !171
  %46 = icmp sge i32 %45, 0
  br i1 %46, label %47, label %48

47:                                               ; preds = %42
  br label %98

48:                                               ; preds = %42
  %49 = load i32, ptr %7, align 4, !tbaa !7
  %50 = load ptr, ptr %10, align 8, !tbaa !178
  %51 = getelementptr inbounds nuw %struct.Opening, ptr %50, i32 0, i32 2
  %52 = load i32, ptr %51, align 4, !tbaa !183
  %53 = icmp slt i32 %49, %52
  br i1 %53, label %54, label %55

54:                                               ; preds = %48
  br label %103

55:                                               ; preds = %48
  %56 = load i32, ptr %7, align 4, !tbaa !7
  %57 = load ptr, ptr %10, align 8, !tbaa !178
  %58 = getelementptr inbounds nuw %struct.Opening, ptr %57, i32 0, i32 0
  %59 = load i32, ptr %58, align 4, !tbaa !175
  %60 = icmp sge i32 %56, %59
  br i1 %60, label %61, label %62

61:                                               ; preds = %55
  br label %98

62:                                               ; preds = %55
  %63 = load i8, ptr %8, align 1, !tbaa !30
  %64 = zext i8 %63 to i32
  %65 = load ptr, ptr %10, align 8, !tbaa !178
  %66 = getelementptr inbounds nuw %struct.Opening, ptr %65, i32 0, i32 4
  %67 = load i32, ptr %66, align 4, !tbaa !179
  %68 = icmp eq i32 %64, %67
  br i1 %68, label %69, label %70

69:                                               ; preds = %62
  br label %103

70:                                               ; preds = %62
  %71 = load ptr, ptr %10, align 8, !tbaa !178
  %72 = getelementptr inbounds nuw %struct.Opening, ptr %71, i32 0, i32 0
  %73 = load i32, ptr %72, align 4, !tbaa !175
  store i32 %73, ptr %13, align 4, !tbaa !7
  %74 = load i8, ptr %8, align 1, !tbaa !30
  %75 = load ptr, ptr %11, align 8, !tbaa !64
  %76 = load i32, ptr %13, align 4, !tbaa !7
  %77 = sext i32 %76 to i64
  %78 = getelementptr inbounds i8, ptr %75, i64 %77
  store i8 %74, ptr %78, align 1, !tbaa !30
  %79 = load ptr, ptr %10, align 8, !tbaa !178
  %80 = getelementptr inbounds nuw %struct.Opening, ptr %79, i32 0, i32 1
  %81 = load i32, ptr %80, align 4, !tbaa !171
  %82 = sub nsw i32 0, %81
  store i32 %82, ptr %14, align 4, !tbaa !7
  %83 = load i8, ptr %8, align 1, !tbaa !30
  %84 = load ptr, ptr %11, align 8, !tbaa !64
  %85 = load i32, ptr %14, align 4, !tbaa !7
  %86 = sext i32 %85 to i64
  %87 = getelementptr inbounds i8, ptr %84, i64 %86
  store i8 %83, ptr %87, align 1, !tbaa !30
  %88 = load ptr, ptr %10, align 8, !tbaa !178
  %89 = getelementptr inbounds nuw %struct.Opening, ptr %88, i32 0, i32 1
  store i32 0, ptr %89, align 4, !tbaa !171
  %90 = load ptr, ptr %5, align 8, !tbaa !152
  %91 = load i32, ptr %12, align 4, !tbaa !7
  %92 = load i32, ptr %13, align 4, !tbaa !7
  %93 = load i8, ptr %8, align 1, !tbaa !30
  call void @_ZL6fixN0cP11BracketDataiih(ptr noundef %90, i32 noundef %91, i32 noundef %92, i8 noundef zeroext %93)
  %94 = load ptr, ptr %5, align 8, !tbaa !152
  %95 = load i32, ptr %12, align 4, !tbaa !7
  %96 = load i32, ptr %14, align 4, !tbaa !7
  %97 = load i8, ptr %8, align 1, !tbaa !30
  call void @_ZL6fixN0cP11BracketDataiih(ptr noundef %94, i32 noundef %95, i32 noundef %96, i8 noundef zeroext %97)
  br label %98

98:                                               ; preds = %70, %61, %47
  %99 = load i32, ptr %12, align 4, !tbaa !7
  %100 = add nsw i32 %99, 1
  store i32 %100, ptr %12, align 4, !tbaa !7
  %101 = load ptr, ptr %10, align 8, !tbaa !178
  %102 = getelementptr inbounds nuw %struct.Opening, ptr %101, i32 1
  store ptr %102, ptr %10, align 8, !tbaa !178
  br label %35, !llvm.loop !184

103:                                              ; preds = %69, %54, %35
  call void @llvm.lifetime.end.p0(i64 4, ptr %14) #10
  call void @llvm.lifetime.end.p0(i64 4, ptr %13) #10
  call void @llvm.lifetime.end.p0(i64 4, ptr %12) #10
  call void @llvm.lifetime.end.p0(i64 8, ptr %11) #10
  call void @llvm.lifetime.end.p0(i64 8, ptr %10) #10
  call void @llvm.lifetime.end.p0(i64 8, ptr %9) #10
  ret void
}