; Function Attrs: mustprogress nofree nosync nounwind memory(readwrite, inaccessiblemem: none) uwtable
define internal fastcc void @_ZL6fixN0cP11BracketDataiih(ptr noundef nonnull %0, i32 noundef range(i32 0, 65535) %1, i32 noundef %2, i8 noundef zeroext %3) unnamed_addr #14 {
  %5 = getelementptr inbounds nuw i8, ptr %0, i64 500
  %6 = load i32, ptr %5, align 4, !tbaa !100
  %7 = sext i32 %6 to i64
  %8 = load ptr, ptr %0, align 8, !tbaa !98
  %9 = getelementptr inbounds nuw i8, ptr %8, i64 112
  %10 = load ptr, ptr %9, align 8, !tbaa !76
  %11 = add nuw nsw i32 %1, 1
  %12 = zext i8 %3 to i32
  %.idx = shl nsw i64 %7, 4
  %13 = getelementptr i8, ptr %0, i64 510
  %14 = getelementptr i8, ptr %13, i64 %.idx
  %15 = load i16, ptr %14, align 2, !tbaa !104
  %16 = zext i16 %15 to i32
  %17 = icmp samesign ult i32 %11, %16
  br i1 %17, label %.lr.ph.preheader, label %._crit_edge

.lr.ph.preheader:                                 ; preds = %4
  %18 = getelementptr inbounds nuw i8, ptr %0, i64 488
  %19 = load ptr, ptr %18, align 8, !tbaa !111
  %20 = zext nneg i32 %11 to i64
  %21 = getelementptr inbounds nuw %struct.Opening, ptr %19, i64 %20
  br label %.lr.ph

.lr.ph:                                           ; preds = %.lr.ph.preheader, %43
  %22 = phi i16 [ %44, %43 ], [ %15, %.lr.ph.preheader ]
  %.037 = phi ptr [ %46, %43 ], [ %21, %.lr.ph.preheader ]
  %.03336 = phi i32 [ %45, %43 ], [ %11, %.lr.ph.preheader ]
  %23 = getelementptr inbounds nuw i8, ptr %.037, i64 4
  %24 = load i32, ptr %23, align 4, !tbaa !146
  %25 = icmp sgt i32 %24, -1
  br i1 %25, label %43, label %26

26:                                               ; preds = %.lr.ph
  %27 = getelementptr inbounds nuw i8, ptr %.037, i64 8
  %28 = load i32, ptr %27, align 4, !tbaa !157
  %29 = icmp slt i32 %2, %28
  br i1 %29, label %._crit_edge, label %30

30:                                               ; preds = %26
  %31 = load i32, ptr %.037, align 4, !tbaa !151
  %.not = icmp slt i32 %2, %31
  br i1 %.not, label %32, label %43

32:                                               ; preds = %30
  %33 = getelementptr inbounds nuw i8, ptr %.037, i64 16
  %34 = load i32, ptr %33, align 4, !tbaa !150
  %35 = icmp eq i32 %34, %12
  br i1 %35, label %._crit_edge, label %36

36:                                               ; preds = %32
  %37 = sext i32 %31 to i64
  %38 = getelementptr inbounds i8, ptr %10, i64 %37
  store i8 %3, ptr %38, align 1, !tbaa !59
  %39 = load i32, ptr %23, align 4, !tbaa !146
  %40 = sub nsw i32 0, %39
  %41 = sext i32 %40 to i64
  %42 = getelementptr inbounds i8, ptr %10, i64 %41
  store i8 %3, ptr %42, align 1, !tbaa !59
  store i32 0, ptr %23, align 4, !tbaa !146
  tail call fastcc void @_ZL6fixN0cP11BracketDataiih(ptr noundef %0, i32 noundef %.03336, i32 noundef %31, i8 noundef zeroext %3)
  tail call fastcc void @_ZL6fixN0cP11BracketDataiih(ptr noundef %0, i32 noundef %.03336, i32 noundef %40, i8 noundef zeroext %3)
  %.pre = load i16, ptr %14, align 2, !tbaa !104
  br label %43

43:                                               ; preds = %30, %.lr.ph, %36
  %44 = phi i16 [ %22, %30 ], [ %22, %.lr.ph ], [ %.pre, %36 ]
  %45 = add nuw nsw i32 %.03336, 1
  %46 = getelementptr inbounds nuw i8, ptr %.037, i64 24
  %47 = zext i16 %44 to i32
  %48 = icmp samesign ult i32 %45, %47
  br i1 %48, label %.lr.ph, label %._crit_edge, !llvm.loop !158

._crit_edge:                                      ; preds = %43, %26, %32, %4
  ret void
}